Certificate:
    Data:
        Version: 3 (0x2)
        Serial Number: 2 (0x2)
        Signature Algorithm: sha1WithRSAEncryption
        Issuer: C=US, O=Apple Inc., OU=Apple Certification Authority, CN=[TEST] Apple iPhone Certification Authority
        Validity
            Not Before: Mar 21 06:20:50 2007 GMT
            Not After : Mar 12 06:20:50 2022 GMT
        Subject: C=US, O=Apple Inc., OU=Apple iPhone, CN=[TEST] Apple iPhone Activation
        Subject Public Key Info:
            Public Key Algorithm: rsaEncryption
            RSA Public Key: (1024 bit)
                Modulus (1024 bit):
                    00:b3:62:65:ec:48:dd:dd:ed:44:d4:f1:fe:fb:c2:
                    6f:42:d0:82:09:03:00:a6:01:e8:b1:07:09:26:5b:
                    12:65:db:7f:51:15:ef:4f:45:b3:8f:ce:4d:16:1d:
                    38:84:01:10:57:4e:8c:71:e1:5e:de:67:14:75:da:
                    48:9a:4c:6f:f0:45:65:66:e8:9c:b5:a2:4c:f4:53:
                    c1:ec:98:62:90:b0:94:be:12:f2:a0:ac:5c:77:16:
                    07:73:72:5a:97:ba:50:4e:67:30:52:1e:f0:30:4e:
                    8f:b2:a4:d3:d1:fa:f8:66:79:87:91:2f:a1:ef:4e:
                    e6:41:8d:94:18:29:e0:f2:cf
                Exponent: 65537 (0x10001)
        X509v3 extensions:
            X509v3 Key Usage: critical
                Digital Signature
            X509v3 Basic Constraints: critical
                CA:FALSE
            X509v3 Subject Key Identifier: 
                C0:6F:3A:4A:1B:ED:51:DD:9D:A3:4B:C0:41:F6:6A:11:F9:AB:8B:F1
            X509v3 Authority Key Identifier: 
                keyid:45:A2:4C:A9:8A:5B:4A:27:5E:85:A6:4D:05:1C:27:44:A5:87:76:17

            X509v3 CRL Distribution Points: 
                URI:http://www.apple.com/appleca/iphone.crl

    Signature Algorithm: sha1WithRSAEncryption
        0e:4f:55:00:9d:1e:4c:75:28:e8:79:bb:db:5c:5c:cc:45:93:
        46:d3:3b:14:00:2d:5b:b0:8c:2e:15:3e:19:60:43:25:59:7f:
        7b:3a:b2:7c:cf:c2:96:dd:b0:d7:70:5a:8e:28:c4:cc:32:2c:
        f4:c2:43:e3:e1:1f:b3:b1:df:ec:86:dd:43:93:45:60:a1:53:
        05:ba:6a:70:43:44:11:a1:9e:dd:c1:71:8b:cb:30:cd:d3:15:
        21:e0:27:30:35:8a:76:8e:c2:23:fb:44:22:bd:96:f6:aa:55:
        bf:4d:11:b1:0e:c4:7f:cf:86:8d:f8:30:dd:80:48:5d:9e:41:
        4e:e0:29:96:25:cc:d6:4a:0d:47:05:87:c4:61:f6:b0:1e:1a:
        da:48:56:a3:c1:c1:56:95:b3:4e:84:82:1b:a5:4d:d3:d0:5d:
        60:cf:fd:e5:75:3c:91:13:e2:e4:f1:60:4a:58:93:de:3f:e9:
        3c:bf:da:c9:f6:ef:9b:9e:b1:6e:78:9e:81:f6:e7:4c:09:b3:
        1c:87:25:bf:8f:6e:3f:d6:03:53:1e:09:a3:5b:00:4b:9e:98:
        fb:ae:13:86:e4:47:6a:1a:44:f8:15:c8:fb:30:c7:bd:b0:e8:
        8c:ac:2d:73:08:af:ed:b2:e8:f5:6d:a1:e2:d9:45:de:d5:b9:
        98:89:16:72
-----BEGIN CERTIFICATE-----
MIIDdjCCAl6gAwIBAgIBAjANBgkqhkiG9w0BAQUFADCBgDELMAkGA1UEBhMCVVMx
EzARBgNVBAoTCkFwcGxlIEluYy4xJjAkBgNVBAsTHUFwcGxlIENlcnRpZmljYXRp
b24gQXV0aG9yaXR5MTQwMgYDVQQDFCtbVEVTVF0gQXBwbGUgaVBob25lIENlcnRp
ZmljYXRpb24gQXV0aG9yaXR5MB4XDTA3MDMyMTA2MjA1MFoXDTIyMDMxMjA2MjA1
MFowYjELMAkGA1UEBhMCVVMxEzARBgNVBAoTCkFwcGxlIEluYy4xFTATBgNVBAsT
DEFwcGxlIGlQaG9uZTEnMCUGA1UEAxQeW1RFU1RdIEFwcGxlIGlQaG9uZSBBY3Rp
dmF0aW9uMIGfMA0GCSqGSIb3DQEBAQUAA4GNADCBiQKBgQCzYmXsSN3d7UTU8f77
wm9C0IIJAwCmAeixBwkmWxJl239RFe9PRbOPzk0WHTiEARBXToxx4V7eZxR12kia
TG/wRWVm6Jy1okz0U8HsmGKQsJS+EvKgrFx3FgdzclqXulBOZzBSHvAwTo+ypNPR
+vhmeYeRL6HvTuZBjZQYKeDyzwIDAQABo4GbMIGYMA4GA1UdDwEB/wQEAwIHgDAM
BgNVHRMBAf8EAjAAMB0GA1UdDgQWBBTAbzpKG+1R3Z2jS8BB9moR+auL8TAfBgNV
HSMEGDAWgBRFokypiltKJ16Fpk0FHCdEpYd2FzA4BgNVHR8EMTAvMC2gK6Aphido
dHRwOi8vd3d3LmFwcGxlLmNvbS9hcHBsZWNhL2lwaG9uZS5jcmwwDQYJKoZIhvcN
AQEFBQADggEBAA5PVQCdHkx1KOh5u9tcXMxFk0bTOxQALVuwjC4VPhlgQyVZf3s6
snzPwpbdsNdwWo4oxMwyLPTCQ+PhH7Ox3+yG3UOTRWChUwW6anBDRBGhnt3BcYvL
MM3TFSHgJzA1inaOwiP7RCK9lvaqVb9NEbEOxH/Pho34MN2ASF2eQU7gKZYlzNZK
DUcFh8Rh9rAeGtpIVqPBwVaVs06EghulTdPQXWDP/eV1PJET4uTxYEpYk94/6Ty/
2sn275uesW54noH250wJsxyHJb+Pbj/WA1MeCaNbAEuemPuuE4bkR2oaRPgVyPsw
x72w6IysLXMIr+2y6PVtoeLZRd7VuZiJFnI=
-----END CERTIFICATE-----
